target datalayout = "e-m:e-p270:32:32-p271:32:32-p272:64:64-i64:64-i128:128-f80:128-n8:16:32:64-S128"
target triple = "x86_64-pc-linux-gnu"

%struct.mi_heap_s = type { ptr, [129 x ptr], [75 x %struct.mi_page_queue_s], ptr, i64, i64, [2 x i64], %struct.mi_random_cxt_s, i64, i64, i64, ptr, i8 }
%struct.mi_page_queue_s = type { ptr, ptr, i64 }
%struct.mi_random_cxt_s = type { [16 x i32], [16 x i32], i32 }
%struct.mi_page_s = type { i32, i32, i8, i16, i16, %union.mi_page_flags_s, i8, ptr, i32, i32, ptr, i64, i64, ptr, ptr, [1 x i64] }
%union.mi_page_flags_s = type { i8 }
%struct.mi_tld_s = type { i64, i8, ptr, ptr, %struct.mi_segments_tld_s, %struct.mi_os_tld_s, %struct.mi_stats_s }
%struct.mi_segments_tld_s = type { [36 x %struct.mi_span_queue_s], i64, i64, i64, i64, ptr, ptr }
%struct.mi_span_queue_s = type { ptr, ptr, i64 }
%struct.mi_os_tld_s = type { i64, ptr }
%struct.mi_stats_s = type { %struct.mi_stat_count_s, %struct.mi_stat_count_s, %struct.mi_stat_count_s, %struct.mi_stat_count_s, %struct.mi_stat_count_s, %struct.mi_stat_count_s, %struct.mi_stat_count_s, %struct.mi_stat_count_s, %struct.mi_stat_count_s, %struct.mi_stat_count_s, %struct.mi_stat_count_s, %struct.mi_stat_count_s, %struct.mi_stat_count_s, %struct.mi_stat_count_s, %struct.mi_stat_counter_s, %struct.mi_stat_counter_s, %struct.mi_stat_counter_s, %struct.mi_stat_counter_s, %struct.mi_stat_counter_s, %struct.mi_stat_counter_s, %struct.mi_stat_counter_s, %struct.mi_stat_counter_s }
%struct.mi_stat_count_s = type { i64, i64, i64, i64 }
%struct.mi_stat_counter_s = type { i64, i64 }

; Function Attrs: inlinehint nounwind uwtable
define internal i64 @mi_clz(i64 noundef %0) #1 {
  %2 = alloca i64, align 8
  %3 = alloca i64, align 8
  store i64 %0, ptr %3, align 8, !tbaa !3
  %4 = load i64, ptr %3, align 8, !tbaa !3
  %5 = icmp eq i64 %4, 0
  br i1 %5, label %6, label %7

6:                                                ; preds = %1
  store i64 64, ptr %2, align 8
  br label %12

7:                                                ; preds = %1
  %8 = load i64, ptr %3, align 8, !tbaa !3
  %9 = call i64 @llvm.ctlz.i64(i64 %8, i1 true)
  %10 = trunc i64 %9 to i32
  %11 = sext i32 %10 to i64
  store i64 %11, ptr %2, align 8
  br label %12

12:                                               ; preds = %7, %6
  %13 = load i64, ptr %2, align 8
  ret i64 %13
}

; Function Attrs: inlinehint nounwind uwtable
define internal i64 @mi_bsr(i64 noundef %0) #1 {
  %2 = alloca i64, align 8
  store i64 %0, ptr %2, align 8, !tbaa !3
  %3 = load i64, ptr %2, align 8, !tbaa !3
  %4 = icmp eq i64 %3, 0
  br i1 %4, label %5, label %6

5:                                                ; preds = %1
  br label %10

6:                                                ; preds = %1
  %7 = load i64, ptr %2, align 8, !tbaa !3
  %8 = call i64 @mi_clz(i64 noundef %7)
  %9 = sub i64 63, %8
  br label %10

10:                                               ; preds = %6, %5
  %11 = phi i64 [ 64, %5 ], [ %9, %6 ]
  ret i64 %11
}

; Function Attrs: inlinehint nounwind uwtable
define internal i64 @_mi_wsize_from_size(i64 noundef %0) #1 {
  %2 = alloca i64, align 8
  store i64 %0, ptr %2, align 8, !tbaa !3
  %3 = load i64, ptr %2, align 8, !tbaa !3
  %4 = add i64 %3, 8
  %5 = sub i64 %4, 1
  %6 = udiv i64 %5, 8
  ret i64 %6
}

; Function Attrs: inlinehint nounwind uwtable
define internal void @mi_page_set_heap(ptr noundef %0, ptr noundef %1) #1 {
  %3 = alloca ptr, align 8
  %4 = alloca ptr, align 8
  %5 = alloca i64, align 8
  store ptr %0, ptr %3, align 8, !tbaa !17
  store ptr %1, ptr %4, align 8, !tbaa !12
  %6 = load ptr, ptr %3, align 8, !tbaa !17
  %7 = getelementptr inbounds nuw %struct.mi_page_s, ptr %6, i32 0, i32 12
  %8 = load ptr, ptr %4, align 8, !tbaa !12
  %9 = ptrtoint ptr %8 to i64
  store i64 %9, ptr %5, align 8, !tbaa !3
  %10 = load i64, ptr %5, align 8
  store atomic i64 %10, ptr %7 release, align 8
  ret void
}

; Function Attrs: inlinehint nounwind uwtable
define internal zeroext i8 @mi_bin(i64 noundef %0) #1 {
  %2 = alloca i64, align 8
  %3 = alloca i64, align 8
  %4 = alloca i8, align 1
  %5 = alloca i8, align 1
  store i64 %0, ptr %2, align 8, !tbaa !3
  call void @llvm.lifetime.start.p0(i64 8, ptr %3) #6
  %6 = load i64, ptr %2, align 8, !tbaa !3
  %7 = call i64 @_mi_wsize_from_size(i64 noundef %6)
  store i64 %7, ptr %3, align 8, !tbaa !3
  call void @llvm.lifetime.start.p0(i64 1, ptr %4) #6
  %8 = load i64, ptr %3, align 8, !tbaa !3
  %9 = icmp ule i64 %8, 1
  br i1 %9, label %10, label %11

10:                                               ; preds = %1
  store i8 1, ptr %4, align 1, !tbaa !7
  br label %46

11:                                               ; preds = %1
  %12 = load i64, ptr %3, align 8, !tbaa !3
  %13 = icmp ule i64 %12, 8
  br i1 %13, label %14, label %19

14:                                               ; preds = %11
  %15 = load i64, ptr %3, align 8, !tbaa !3
  %16 = add i64 %15, 1
  %17 = and i64 %16, -2
  %18 = trunc i64 %17 to i8
  store i8 %18, ptr %4, align 1, !tbaa !7
  br label %45

19:                                               ; preds = %11
  %20 = load i64, ptr %3, align 8, !tbaa !3
  %21 = icmp ugt i64 %20, 16384
  br i1 %21, label %22, label %23

22:                                               ; preds = %19
  store i8 73, ptr %4, align 1, !tbaa !7
  br label %44

23:                                               ; preds = %19
  %24 = load i64, ptr %3, align 8, !tbaa !3
  %25 = add i64 %24, -1
  store i64 %25, ptr %3, align 8, !tbaa !3
  call void @llvm.lifetime.start.p0(i64 1, ptr %5) #6
  %26 = load i64, ptr %3, align 8, !tbaa !3
  %27 = call i64 @mi_bsr(i64 noundef %26)
  %28 = trunc i64 %27 to i8
  store i8 %28, ptr %5, align 1, !tbaa !7
  %29 = load i8, ptr %5, align 1, !tbaa !7
  %30 = zext i8 %29 to i32
  %31 = shl i32 %30, 2
  %32 = load i64, ptr %3, align 8, !tbaa !3
  %33 = load i8, ptr %5, align 1, !tbaa !7
  %34 = zext i8 %33 to i32
  %35 = sub nsw i32 %34, 2
  %36 = zext i32 %35 to i64
  %37 = lshr i64 %32, %36
  %38 = and i64 %37, 3
  %39 = trunc i64 %38 to i8
  %40 = zext i8 %39 to i32
  %41 = add nsw i32 %31, %40
  %42 = sub nsw i32 %41, 3
  %43 = trunc i32 %42 to i8
  store i8 %43, ptr %4, align 1, !tbaa !7
  call void @llvm.lifetime.end.p0(i64 1, ptr %5) #6
  br label %44

44:                                               ; preds = %23, %22
  br label %45

45:                                               ; preds = %44, %14
  br label %46

46:                                               ; preds = %45, %10
  %47 = load i8, ptr %4, align 1, !tbaa !7
  call void @llvm.lifetime.end.p0(i64 1, ptr %4) #6
  call void @llvm.lifetime.end.p0(i64 8, ptr %3) #6
  ret i8 %47
}

; Function Attrs: nounwind uwtable
define hidden void @_mi_page_free(ptr noundef %0, ptr noundef %1, i1 noundef zeroext %2) #0 {
  %4 = alloca ptr, align 8
  %5 = alloca ptr, align 8
  %6 = alloca i8, align 1
  %7 = alloca ptr, align 8
  %8 = alloca ptr, align 8
  store ptr %0, ptr %4, align 8, !tbaa !17
  store ptr %1, ptr %5, align 8, !tbaa !14
  %9 = zext i1 %2 to i8
  store i8 %9, ptr %6, align 1, !tbaa !28
  %10 = load ptr, ptr %4, align 8, !tbaa !17
  call void @mi_page_set_has_aligned(ptr noundef %10, i1 noundef zeroext false)
  call void @llvm.lifetime.start.p0(i64 8, ptr %7) #6
  %11 = load ptr, ptr %4, align 8, !tbaa !17
  %12 = call ptr @mi_page_heap(ptr noundef %11)
  store ptr %12, ptr %7, align 8, !tbaa !12
  call void @llvm.lifetime.start.p0(i64 8, ptr %8) #6
  %13 = load ptr, ptr %7, align 8, !tbaa !12
  %14 = getelementptr inbounds nuw %struct.mi_heap_s, ptr %13, i32 0, i32 0
  %15 = load ptr, ptr %14, align 8, !tbaa !58
  %16 = getelementptr inbounds nuw %struct.mi_tld_s, ptr %15, i32 0, i32 4
  store ptr %16, ptr %8, align 8, !tbaa !59
  %17 = load ptr, ptr %5, align 8, !tbaa !14
  %18 = load ptr, ptr %4, align 8, !tbaa !17
  call void @mi_page_queue_remove(ptr noundef %17, ptr noundef %18)
  %19 = load ptr, ptr %4, align 8, !tbaa !17
  call void @mi_page_set_heap(ptr noundef %19, ptr noundef null)
  %20 = load ptr, ptr %4, align 8, !tbaa !17
  %21 = load i8, ptr %6, align 1, !tbaa !28, !range !30, !noundef !31
  %22 = trunc i8 %21 to i1
  %23 = load ptr, ptr %8, align 8, !tbaa !59
  call void @_mi_segment_page_free(ptr noundef %20, i1 noundef zeroext %22, ptr noundef %23)
  call void @llvm.lifetime.end.p0(i64 8, ptr %8) #6
  call void @llvm.lifetime.end.p0(i64 8, ptr %7) #6
  ret void
}

; Function Attrs: inlinehint nounwind uwtable
define internal ptr @mi_page_heap(ptr noundef %0) #1 {
  %2 = alloca ptr, align 8
  %3 = alloca i64, align 8
  store ptr %0, ptr %2, align 8, !tbaa !17
  %4 = load ptr, ptr %2, align 8, !tbaa !17
  %5 = getelementptr inbounds nuw %struct.mi_page_s, ptr %4, i32 0, i32 12
  %6 = load atomic i64, ptr %5 monotonic, align 8
  store i64 %6, ptr %3, align 8
  %7 = load i64, ptr %3, align 8, !tbaa !3
  %8 = inttoptr i64 %7 to ptr
  ret ptr %8
}

; Function Attrs: inlinehint nounwind uwtable
define internal zeroext i1 @mi_page_is_in_full(ptr noundef %0) #1 {
  %2 = alloca ptr, align 8
  store ptr %0, ptr %2, align 8, !tbaa !17
  %3 = load ptr, ptr %2, align 8, !tbaa !17
  %4 = getelementptr inbounds nuw %struct.mi_page_s, ptr %3, i32 0, i32 5
  %5 = load i8, ptr %4, align 2
  %6 = and i8 %5, 1
  %7 = icmp ne i8 %6, 0
  ret i1 %7
}

; Function Attrs: nounwind uwtable
define internal ptr @mi_page_queue_of(ptr noundef %0) #0 {
  %2 = alloca ptr, align 8
  %3 = alloca i8, align 1
  %4 = alloca ptr, align 8
  %5 = alloca ptr, align 8
  store ptr %0, ptr %2, align 8, !tbaa !17
  call void @llvm.lifetime.start.p0(i64 1, ptr %3) #6
  %6 = load ptr, ptr %2, align 8, !tbaa !17
  %7 = call zeroext i1 @mi_page_is_in_full(ptr noundef %6)
  br i1 %7, label %8, label %9

8:                                                ; preds = %1
  br label %16

9:                                                ; preds = %1
  %10 = load ptr, ptr %2, align 8, !tbaa !17
  %11 = getelementptr inbounds nuw %struct.mi_page_s, ptr %10, i32 0, i32 9
  %12 = load i32, ptr %11, align 4, !tbaa !45
  %13 = zext i32 %12 to i64
  %14 = call zeroext i8 @mi_bin(i64 noundef %13)
  %15 = zext i8 %14 to i32
  br label %16

16:                                               ; preds = %9, %8
  %17 = phi i32 [ 74, %8 ], [ %15, %9 ]
  %18 = trunc i32 %17 to i8
  store i8 %18, ptr %3, align 1, !tbaa !7
  call void @llvm.lifetime.start.p0(i64 8, ptr %4) #6
  %19 = load ptr, ptr %2, align 8, !tbaa !17
  %20 = call ptr @mi_page_heap(ptr noundef %19)
  store ptr %20, ptr %4, align 8, !tbaa !12
  call void @llvm.lifetime.start.p0(i64 8, ptr %5) #6
  %21 = load ptr, ptr %4, align 8, !tbaa !12
  %22 = getelementptr inbounds nuw %struct.mi_heap_s, ptr %21, i32 0, i32 2
  %23 = load i8, ptr %3, align 1, !tbaa !7
  %24 = zext i8 %23 to i64
  %25 = getelementptr inbounds nuw [75 x %struct.mi_page_queue_s], ptr %22, i64 0, i64 %24
  store ptr %25, ptr %5, align 8, !tbaa !14
  %26 = load ptr, ptr %5, align 8, !tbaa !14
  call void @llvm.lifetime.end.p0(i64 8, ptr %5) #6
  call void @llvm.lifetime.end.p0(i64 8, ptr %4) #6
  call void @llvm.lifetime.end.p0(i64 1, ptr %3) #6
  ret ptr %26
}

; Function Attrs: inlinehint nounwind uwtable
define internal void @mi_page_set_has_aligned(ptr noundef %0, i1 noundef zeroext %1) #1 {
  %3 = alloca ptr, align 8
  %4 = alloca i8, align 1
  store ptr %0, ptr %3, align 8, !tbaa !17
  %5 = zext i1 %1 to i8
  store i8 %5, ptr %4, align 1, !tbaa !28
  %6 = load i8, ptr %4, align 1, !tbaa !28, !range !30, !noundef !31
  %7 = trunc i8 %6 to i1
  %8 = zext i1 %7 to i8
  %9 = load ptr, ptr %3, align 8, !tbaa !17
  %10 = getelementptr inbounds nuw %struct.mi_page_s, ptr %9, i32 0, i32 5
  %11 = load i8, ptr %10, align 2
  %12 = and i8 %8, 1
  %13 = shl i8 %12, 1
  %14 = and i8 %11, -3
  %15 = or i8 %14, %13
  store i8 %15, ptr %10, align 2
  ret void
}

; Function Attrs: nounwind uwtable
define hidden void @_mi_page_retire(ptr noundef %0) #0 {
  %2 = alloca ptr, align 8
  %3 = alloca ptr, align 8
  %4 = alloca ptr, align 8
  %5 = alloca i64, align 8
  %6 = alloca i32, align 4
  store ptr %0, ptr %2, align 8, !tbaa !17
  %7 = load ptr, ptr %2, align 8, !tbaa !17
  call void @mi_page_set_has_aligned(ptr noundef %7, i1 noundef zeroext false)
  call void @llvm.lifetime.start.p0(i64 8, ptr %3) #6
  %8 = load ptr, ptr %2, align 8, !tbaa !17
  %9 = call ptr @mi_page_queue_of(ptr noundef %8)
  store ptr %9, ptr %3, align 8, !tbaa !14
  %10 = load ptr, ptr %2, align 8, !tbaa !17
  %11 = getelementptr inbounds nuw %struct.mi_page_s, ptr %10, i32 0, i32 9
  %12 = load i32, ptr %11, align 4, !tbaa !45
  %13 = zext i32 %12 to i64
  %14 = icmp ule i64 %13, 131072
  br i1 %14, label %15, label %19

15:                                               ; preds = %1
  %16 = load ptr, ptr %2, align 8, !tbaa !17
  %17 = call zeroext i1 @mi_page_is_in_full(ptr noundef %16)
  %18 = xor i1 %17, true
  br label %19

19:                                               ; preds = %15, %1
  %20 = phi i1 [ false, %1 ], [ %18, %15 ]
  %21 = xor i1 %20, true
  %22 = xor i1 %21, true
  %23 = zext i1 %22 to i32
  %24 = sext i32 %23 to i64
  %25 = call i64 @llvm.expect.i64(i64 %24, i64 1)
  %26 = icmp ne i64 %25, 0
  br i1 %26, label %27, label %86

27:                                               ; preds = %19
  %28 = load ptr, ptr %3, align 8, !tbaa !14
  %29 = getelementptr inbounds nuw %struct.mi_page_queue_s, ptr %28, i32 0, i32 1
  %30 = load ptr, ptr %29, align 8, !tbaa !25
  %31 = load ptr, ptr %2, align 8, !tbaa !17
  %32 = icmp eq ptr %30, %31
  br i1 %32, label %33, label %85

33:                                               ; preds = %27
  %34 = load ptr, ptr %3, align 8, !tbaa !14
  %35 = getelementptr inbounds nuw %struct.mi_page_queue_s, ptr %34, i32 0, i32 0
  %36 = load ptr, ptr %35, align 8, !tbaa !16
  %37 = load ptr, ptr %2, align 8, !tbaa !17
  %38 = icmp eq ptr %36, %37
  br i1 %38, label %39, label %85

39:                                               ; preds = %33
  %40 = load ptr, ptr %2, align 8, !tbaa !17
  %41 = getelementptr inbounds nuw %struct.mi_page_s, ptr %40, i32 0, i32 9
  %42 = load i32, ptr %41, align 4, !tbaa !45
  %43 = zext i32 %42 to i64
  %44 = icmp ule i64 %43, 16384
  %45 = select i1 %44, i32 8, i32 2
  %46 = add nsw i32 1, %45
  %47 = trunc i32 %46 to i8
  %48 = load ptr, ptr %2, align 8, !tbaa !17
  %49 = getelementptr inbounds nuw %struct.mi_page_s, ptr %48, i32 0, i32 6
  %50 = load i8, ptr %49, align 1
  %51 = and i8 %47, 127
  %52 = shl i8 %51, 1
  %53 = and i8 %50, 1
  %54 = or i8 %53, %52
  store i8 %54, ptr %49, align 1
  call void @llvm.lifetime.start.p0(i64 8, ptr %4) #6
  %55 = load ptr, ptr %2, align 8, !tbaa !17
  %56 = call ptr @mi_page_heap(ptr noundef %55)
  store ptr %56, ptr %4, align 8, !tbaa !12
  call void @llvm.lifetime.start.p0(i64 8, ptr %5) #6
  %57 = load ptr, ptr %3, align 8, !tbaa !14
  %58 = load ptr, ptr %4, align 8, !tbaa !12
  %59 = getelementptr inbounds nuw %struct.mi_heap_s, ptr %58, i32 0, i32 2
  %60 = getelementptr inbounds [75 x %struct.mi_page_queue_s], ptr %59, i64 0, i64 0
  %61 = ptrtoint ptr %57 to i64
  %62 = ptrtoint ptr %60 to i64
  %63 = sub i64 %61, %62
  %64 = sdiv exact i64 %63, 24
  store i64 %64, ptr %5, align 8, !tbaa !3
  %65 = load i64, ptr %5, align 8, !tbaa !3
  %66 = load ptr, ptr %4, align 8, !tbaa !12
  %67 = getelementptr inbounds nuw %struct.mi_heap_s, ptr %66, i32 0, i32 9
  %68 = load i64, ptr %67, align 8, !tbaa !61
  %69 = icmp ult i64 %65, %68
  br i1 %69, label %70, label %74

70:                                               ; preds = %39
  %71 = load i64, ptr %5, align 8, !tbaa !3
  %72 = load ptr, ptr %4, align 8, !tbaa !12
  %73 = getelementptr inbounds nuw %struct.mi_heap_s, ptr %72, i32 0, i32 9
  store i64 %71, ptr %73, align 8, !tbaa !61
  br label %74

74:                                               ; preds = %70, %39
  %75 = load i64, ptr %5, align 8, !tbaa !3
  %76 = load ptr, ptr %4, align 8, !tbaa !12
  %77 = getelementptr inbounds nuw %struct.mi_heap_s, ptr %76, i32 0, i32 10
  %78 = load i64, ptr %77, align 8, !tbaa !62
  %79 = icmp ugt i64 %75, %78
  br i1 %79, label %80, label %84

80:                                               ; preds = %74
  %81 = load i64, ptr %5, align 8, !tbaa !3
  %82 = load ptr, ptr %4, align 8, !tbaa !12
  %83 = getelementptr inbounds nuw %struct.mi_heap_s, ptr %82, i32 0, i32 10
  store i64 %81, ptr %83, align 8, !tbaa !62
  br label %84

84:                                               ; preds = %80, %74
  store i32 1, ptr %6, align 4
  call void @llvm.lifetime.end.p0(i64 8, ptr %5) #6
  call void @llvm.lifetime.end.p0(i64 8, ptr %4) #6
  br label %89

85:                                               ; preds = %33, %27
  br label %86

86:                                               ; preds = %85, %19
  %87 = load ptr, ptr %2, align 8, !tbaa !17
  %88 = load ptr, ptr %3, align 8, !tbaa !14
  call void @_mi_page_free(ptr noundef %87, ptr noundef %88, i1 noundef zeroext false)
  store i32 0, ptr %6, align 4
  br label %89

89:                                               ; preds = %86, %84
  call void @llvm.lifetime.end.p0(i64 8, ptr %3) #6
  %90 = load i32, ptr %6, align 4
  switch i32 %90, label %92 [
    i32 0, label %91
    i32 1, label %91
  ]

91:                                               ; preds = %89, %89
  ret void

92:                                               ; preds = %89
  unreachable
}