; Function Attrs: nounwind uwtable
define hidden void @_mi_page_retire(ptr noundef %0) local_unnamed_addr #1 {
  %2 = getelementptr inbounds nuw i8, ptr %0, i64 14
  %3 = load i8, ptr %2, align 2
  %4 = and i8 %3, -3
  store i8 %4, ptr %2, align 2
  %5 = and i8 %3, 1
  %.not.i = icmp eq i8 %5, 0
  br i1 %.not.i, label %6, label %mi_page_queue_of.exit.thread

6:                                                ; preds = %1
  %7 = getelementptr inbounds nuw i8, ptr %0, i64 28
  %8 = load i32, ptr %7, align 4, !tbaa !36
  %9 = zext i32 %8 to i64
  %10 = add nuw nsw i64 %9, 7
  %11 = lshr i64 %10, 3
  %12 = icmp ult i32 %8, 9
  br i1 %12, label %mi_page_queue_of.exit, label %13

13:                                               ; preds = %6
  %14 = icmp ult i32 %8, 65
  br i1 %14, label %15, label %18

15:                                               ; preds = %13
  %16 = add nuw nsw i64 %11, 1
  %17 = and i64 %16, 30
  br label %mi_page_queue_of.exit

18:                                               ; preds = %13
  %19 = icmp ugt i32 %8, 131072
  br i1 %19, label %mi_page_queue_of.exit.thread, label %20

20:                                               ; preds = %18
  %21 = add nsw i64 %11, -1
  %22 = tail call range(i64 50, 61) i64 @llvm.ctlz.i64(i64 range(i64 8, 16384) %21, i1 true)
  %23 = shl nuw nsw i64 %22, 2
  %24 = xor i64 %23, 252
  %25 = sub nuw nsw i64 61, %22
  %26 = lshr i64 %21, %25
  %27 = and i64 %26, 3
  %28 = add nuw nsw i64 %24, 253
  %29 = add nuw nsw i64 %28, %27
  %30 = and i64 %29, 255
  br label %mi_page_queue_of.exit

mi_page_queue_of.exit.thread:                     ; preds = %18, %1
  %.ph24 = phi i64 [ 73, %18 ], [ 74, %1 ]
  %31 = getelementptr inbounds nuw i8, ptr %0, i64 48
  %32 = load atomic i64, ptr %31 monotonic, align 8
  %33 = inttoptr i64 %32 to ptr
  %34 = getelementptr inbounds nuw i8, ptr %33, i64 1040
  %35 = getelementptr inbounds nuw [75 x %struct.mi_page_queue_s], ptr %34, i64 0, i64 %.ph24
  br label %.critedge

mi_page_queue_of.exit:                            ; preds = %6, %15, %20
  %36 = phi i64 [ %17, %15 ], [ %30, %20 ], [ 1, %6 ]
  %37 = getelementptr inbounds nuw i8, ptr %0, i64 48
  %38 = load atomic i64, ptr %37 monotonic, align 8
  %39 = inttoptr i64 %38 to ptr
  %40 = getelementptr inbounds nuw i8, ptr %39, i64 1040
  %41 = getelementptr inbounds nuw [75 x %struct.mi_page_queue_s], ptr %40, i64 0, i64 %36
  %42 = getelementptr inbounds nuw i8, ptr %41, i64 8
  %43 = load ptr, ptr %42, align 8, !tbaa !11
  %44 = icmp eq ptr %43, %0
  br i1 %44, label %45, label %.critedge

45:                                               ; preds = %mi_page_queue_of.exit
  %46 = load ptr, ptr %41, align 8, !tbaa !10
  %47 = icmp eq ptr %46, %0
  br i1 %47, label %48, label %.critedge

48:                                               ; preds = %45
  %49 = icmp samesign ult i32 %8, 16385
  %50 = select i1 %49, i8 18, i8 6
  %51 = getelementptr inbounds nuw i8, ptr %0, i64 15
  %52 = load i8, ptr %51, align 1
  %53 = and i8 %52, 1
  %54 = or disjoint i8 %53, %50
  store i8 %54, ptr %51, align 1
  %55 = load atomic i64, ptr %37 monotonic, align 8
  %56 = inttoptr i64 %55 to ptr
  %57 = getelementptr inbounds nuw i8, ptr %56, i64 1040
  %58 = ptrtoint ptr %41 to i64
  %59 = ptrtoint ptr %57 to i64
  %60 = sub i64 %58, %59
  %61 = sdiv exact i64 %60, 24
  %62 = getelementptr inbounds nuw i8, ptr %56, i64 3024
  %63 = load i64, ptr %62, align 8, !tbaa !48
  %64 = icmp ult i64 %61, %63
  br i1 %64, label %65, label %66

65:                                               ; preds = %48
  store i64 %61, ptr %62, align 8, !tbaa !48
  br label %66

66:                                               ; preds = %65, %48
  %67 = getelementptr inbounds nuw i8, ptr %56, i64 3032
  %68 = load i64, ptr %67, align 8, !tbaa !49
  %69 = icmp ugt i64 %61, %68
  br i1 %69, label %70, label %77

70:                                               ; preds = %66
  store i64 %61, ptr %67, align 8, !tbaa !49
  br label %77

.critedge:                                        ; preds = %mi_page_queue_of.exit.thread, %mi_page_queue_of.exit, %45
  %71 = phi ptr [ %35, %mi_page_queue_of.exit.thread ], [ %41, %mi_page_queue_of.exit ], [ %41, %45 ]
  %72 = phi ptr [ %31, %mi_page_queue_of.exit.thread ], [ %37, %mi_page_queue_of.exit ], [ %37, %45 ]
  store i8 %4, ptr %2, align 2
  %73 = load atomic i64, ptr %72 monotonic, align 8
  %74 = inttoptr i64 %73 to ptr
  %75 = load ptr, ptr %74, align 8, !tbaa !47
  %76 = getelementptr inbounds nuw i8, ptr %75, i64 32
  tail call fastcc void @mi_page_queue_remove(ptr noundef nonnull %71, ptr noundef nonnull %0)
  store atomic i64 0, ptr %72 release, align 8
  tail call void @_mi_segment_page_free(ptr noundef nonnull %0, i1 noundef zeroext false, ptr noundef nonnull %76) #8
  br label %77

77:                                               ; preds = %66, %70, %.critedge
  ret void
}